target datalayout = "e-m:e-p270:32:32-p271:32:32-p272:64:64-i64:64-i128:128-f80:128-n8:16:32:64-S128"
target triple = "x86_64-pc-linux-gnu"

%struct.mbedtls_context = type { ptr, %struct.mbedtls_net_context }
%struct.mbedtls_net_context = type { i32 }

; Function Attrs: nounwind uwtable
define dso_local void @bufferevent_mbedtls_dyncontext_free(ptr noundef %0) #0 {
  %2 = alloca ptr, align 8
  store ptr %0, ptr %2, align 8
  %3 = load ptr, ptr %2, align 8
  call void @mbedtls_ssl_free(ptr noundef %3)
  %4 = load ptr, ptr %2, align 8
  call void @event_mm_free_(ptr noundef %4)
  ret void
}

; Function Attrs: nounwind uwtable
define internal void @mbedtls_context_free(ptr noundef %0, i32 noundef %1) #0 {
  %3 = alloca ptr, align 8
  %4 = alloca i32, align 4
  %5 = alloca ptr, align 8
  store ptr %0, ptr %3, align 8
  store i32 %1, ptr %4, align 4
  call void @llvm.lifetime.start.p0(i64 8, ptr %5) #3
  %6 = load ptr, ptr %3, align 8
  store ptr %6, ptr %5, align 8
  %7 = load i32, ptr %4, align 4
  %8 = and i32 %7, 1
  %9 = icmp ne i32 %8, 0
  br i1 %9, label %10, label %14

10:                                               ; preds = %2
  %11 = load ptr, ptr %5, align 8
  %12 = getelementptr inbounds nuw %struct.mbedtls_context, ptr %11, i32 0, i32 0
  %13 = load ptr, ptr %12, align 8
  call void @bufferevent_mbedtls_dyncontext_free(ptr noundef %13)
  br label %14

14:                                               ; preds = %10, %2
  %15 = load ptr, ptr %5, align 8
  call void @event_mm_free_(ptr noundef %15)
  call void @llvm.lifetime.end.p0(i64 8, ptr %5) #3
  ret void
}