; Function Attrs: nounwind uwtable
define internal void @mbedtls_context_free(ptr noundef %0, i32 noundef %1) #0 {
  %3 = and i32 %1, 1
  %.not = icmp eq i32 %3, 0
  br i1 %.not, label %6, label %4

4:                                                ; preds = %2
  %5 = load ptr, ptr %0, align 8
  tail call void @mbedtls_ssl_free(ptr noundef %5) #5
  tail call void @event_mm_free_(ptr noundef %5) #5
  br label %6

6:                                                ; preds = %4, %2
  tail call void @event_mm_free_(ptr noundef %0) #5
  ret void
}